
CalculaterProject.elf:     file format elf32-avr

Sections:
Idx Name          Size      VMA       LMA       File off  Algn
  0 .text         00000696  00000000  00000000  00000094  2**1
                  CONTENTS, ALLOC, LOAD, READONLY, CODE
  1 .data         00000036  00800060  00000696  0000072a  2**0
                  CONTENTS, ALLOC, LOAD, DATA
  2 .bss          0000000e  00800096  00800096  00000760  2**0
                  ALLOC
  3 .comment      00000030  00000000  00000000  00000760  2**0
                  CONTENTS, READONLY
  4 .note.gnu.avr.deviceinfo 0000003c  00000000  00000000  00000790  2**2
                  CONTENTS, READONLY
  5 .debug_aranges 00000298  00000000  00000000  000007cc  2**0
                  CONTENTS, READONLY, DEBUGGING
  6 .debug_info   00002e3e  00000000  00000000  00000a64  2**0
                  CONTENTS, READONLY, DEBUGGING
  7 .debug_abbrev 00000e6d  00000000  00000000  000038a2  2**0
                  CONTENTS, READONLY, DEBUGGING
  8 .debug_line   00001501  00000000  00000000  0000470f  2**0
                  CONTENTS, READONLY, DEBUGGING
  9 .debug_frame  00000838  00000000  00000000  00005c10  2**2
                  CONTENTS, READONLY, DEBUGGING
 10 .debug_str    00000d38  00000000  00000000  00006448  2**0
                  CONTENTS, READONLY, DEBUGGING
 11 .debug_loc    00003253  00000000  00000000  00007180  2**0
                  CONTENTS, READONLY, DEBUGGING
 12 .debug_ranges 00000280  00000000  00000000  0000a3d3  2**0
                  CONTENTS, READONLY, DEBUGGING

Disassembly of section .text:

00000000 <__vectors>:
   0:	0c 94 2a 00 	jmp	0x54	; 0x54 <__ctors_end>
   4:	0c 94 2a 02 	jmp	0x454	; 0x454 <__vector_1>
   8:	0c 94 53 02 	jmp	0x4a6	; 0x4a6 <__vector_2>
   c:	0c 94 7c 02 	jmp	0x4f8	; 0x4f8 <__vector_3>
  10:	0c 94 47 00 	jmp	0x8e	; 0x8e <__bad_interrupt>
  14:	0c 94 47 00 	jmp	0x8e	; 0x8e <__bad_interrupt>
  18:	0c 94 47 00 	jmp	0x8e	; 0x8e <__bad_interrupt>
  1c:	0c 94 47 00 	jmp	0x8e	; 0x8e <__bad_interrupt>
  20:	0c 94 47 00 	jmp	0x8e	; 0x8e <__bad_interrupt>
  24:	0c 94 47 00 	jmp	0x8e	; 0x8e <__bad_interrupt>
  28:	0c 94 ce 02 	jmp	0x59c	; 0x59c <__vector_10>
  2c:	0c 94 a5 02 	jmp	0x54a	; 0x54a <__vector_11>
  30:	0c 94 47 00 	jmp	0x8e	; 0x8e <__bad_interrupt>
  34:	0c 94 f7 02 	jmp	0x5ee	; 0x5ee <__vector_13>
  38:	0c 94 47 00 	jmp	0x8e	; 0x8e <__bad_interrupt>
  3c:	0c 94 20 03 	jmp	0x640	; 0x640 <__vector_15>
  40:	0c 94 47 00 	jmp	0x8e	; 0x8e <__bad_interrupt>
  44:	0c 94 47 00 	jmp	0x8e	; 0x8e <__bad_interrupt>
  48:	0c 94 47 00 	jmp	0x8e	; 0x8e <__bad_interrupt>
  4c:	0c 94 47 00 	jmp	0x8e	; 0x8e <__bad_interrupt>
  50:	0c 94 47 00 	jmp	0x8e	; 0x8e <__bad_interrupt>

00000054 <__ctors_end>:
  54:	11 24       	eor	r1, r1
  56:	1f be       	out	0x3f, r1	; 63
  58:	cf e5       	ldi	r28, 0x5F	; 95
  5a:	d8 e0       	ldi	r29, 0x08	; 8
  5c:	de bf       	out	0x3e, r29	; 62
  5e:	cd bf       	out	0x3d, r28	; 61

00000060 <__do_copy_data>:
  60:	10 e0       	ldi	r17, 0x00	; 0
  62:	a0 e6       	ldi	r26, 0x60	; 96
  64:	b0 e0       	ldi	r27, 0x00	; 0
  66:	e6 e9       	ldi	r30, 0x96	; 150
  68:	f6 e0       	ldi	r31, 0x06	; 6
  6a:	02 c0       	rjmp	.+4      	; 0x70 <__do_copy_data+0x10>
  6c:	05 90       	lpm	r0, Z+
  6e:	0d 92       	st	X+, r0
  70:	a6 39       	cpi	r26, 0x96	; 150
  72:	b1 07       	cpc	r27, r17
  74:	d9 f7       	brne	.-10     	; 0x6c <__do_copy_data+0xc>

00000076 <__do_clear_bss>:
  76:	20 e0       	ldi	r18, 0x00	; 0
  78:	a6 e9       	ldi	r26, 0x96	; 150
  7a:	b0 e0       	ldi	r27, 0x00	; 0
  7c:	01 c0       	rjmp	.+2      	; 0x80 <.do_clear_bss_start>

0000007e <.do_clear_bss_loop>:
  7e:	1d 92       	st	X+, r1

00000080 <.do_clear_bss_start>:
  80:	a4 3a       	cpi	r26, 0xA4	; 164
  82:	b2 07       	cpc	r27, r18
  84:	e1 f7       	brne	.-8      	; 0x7e <.do_clear_bss_loop>
  86:	0e 94 9c 01 	call	0x338	; 0x338 <main>
  8a:	0c 94 49 03 	jmp	0x692	; 0x692 <_exit>

0000008e <__bad_interrupt>:
  8e:	0c 94 00 00 	jmp	0	; 0x0 <__vectors>

00000092 <appStart>:
  
  
void appStart()
{
	
	ret = gpio_pin_init(&LCD_RW);
  92:	80 e6       	ldi	r24, 0x60	; 96
  94:	90 e0       	ldi	r25, 0x00	; 0
  96:	0e 94 1a 02 	call	0x434	; 0x434 <gpio_pin_init>
  9a:	80 93 7c 00 	sts	0x007C, r24	; 0x80007c <ret>
	ret = LCD_4Bit_Init(&lcd_1);
  9e:	84 e6       	ldi	r24, 0x64	; 100
  a0:	90 e0       	ldi	r25, 0x00	; 0
  a2:	0e 94 d6 00 	call	0x1ac	; 0x1ac <LCD_4Bit_Init>
  a6:	80 93 7c 00 	sts	0x007C, r24	; 0x80007c <ret>
	
	while(1)
	{
		ret = LCD_4Bit_send_Data_String_Pos(&lcd_1, "Welcome.", 1,5);
  aa:	25 e0       	ldi	r18, 0x05	; 5
  ac:	41 e0       	ldi	r20, 0x01	; 1
  ae:	6d e8       	ldi	r22, 0x8D	; 141
  b0:	70 e0       	ldi	r23, 0x00	; 0
  b2:	84 e6       	ldi	r24, 0x64	; 100
  b4:	90 e0       	ldi	r25, 0x00	; 0
  b6:	0e 94 6b 01 	call	0x2d6	; 0x2d6 <LCD_4Bit_send_Data_String_Pos>
  ba:	80 93 7c 00 	sts	0x007C, r24	; 0x80007c <ret>
	#else
		//round up by default
		__ticks_dc = (uint32_t)(ceil(fabs(__tmp)));
	#endif

	__builtin_avr_delay_cycles(__ticks_dc);
  be:	2f ef       	ldi	r18, 0xFF	; 255
  c0:	83 ed       	ldi	r24, 0xD3	; 211
  c2:	90 e3       	ldi	r25, 0x30	; 48
  c4:	21 50       	subi	r18, 0x01	; 1
  c6:	80 40       	sbci	r24, 0x00	; 0
  c8:	90 40       	sbci	r25, 0x00	; 0
  ca:	e1 f7       	brne	.-8      	; 0xc4 <appStart+0x32>
  cc:	00 c0       	rjmp	.+0      	; 0xce <appStart+0x3c>
  ce:	00 00       	nop
		_delay_ms(1000);
		
		ret = LCD_4Bit_Send_Command(&lcd_1,_LCD_CLEAR);
  d0:	61 e0       	ldi	r22, 0x01	; 1
  d2:	84 e6       	ldi	r24, 0x64	; 100
  d4:	90 e0       	ldi	r25, 0x00	; 0
  d6:	0e 94 b6 00 	call	0x16c	; 0x16c <LCD_4Bit_Send_Command>
  da:	80 93 7c 00 	sts	0x007C, r24	; 0x80007c <ret>
  de:	2f ef       	ldi	r18, 0xFF	; 255
  e0:	81 ee       	ldi	r24, 0xE1	; 225
  e2:	94 e0       	ldi	r25, 0x04	; 4
  e4:	21 50       	subi	r18, 0x01	; 1
  e6:	80 40       	sbci	r24, 0x00	; 0
  e8:	90 40       	sbci	r25, 0x00	; 0
  ea:	e1 f7       	brne	.-8      	; 0xe4 <appStart+0x52>
  ec:	00 c0       	rjmp	.+0      	; 0xee <appStart+0x5c>
  ee:	00 00       	nop
  f0:	dc cf       	rjmp	.-72     	; 0xaa <appStart+0x18>

000000f2 <LCD_4Bit_Send>:
		}
		ret = LCD_4Bit_Send_Data_char(_lcd,_char);
		
	}
	return ret;
}
  f2:	0f 93       	push	r16
  f4:	1f 93       	push	r17
  f6:	cf 93       	push	r28
  f8:	00 97       	sbiw	r24, 0x00	; 0
  fa:	e1 f0       	breq	.+56     	; 0x134 <LCD_4Bit_Send+0x42>
  fc:	c6 2f       	mov	r28, r22
  fe:	8c 01       	movw	r16, r24
 100:	61 70       	andi	r22, 0x01	; 1
 102:	08 96       	adiw	r24, 0x08	; 8
 104:	0e 94 db 01 	call	0x3b6	; 0x3b6 <gpio_write_logic>
 108:	c1 fb       	bst	r28, 1
 10a:	66 27       	eor	r22, r22
 10c:	60 f9       	bld	r22, 0
 10e:	c8 01       	movw	r24, r16
 110:	0c 96       	adiw	r24, 0x0c	; 12
 112:	0e 94 db 01 	call	0x3b6	; 0x3b6 <gpio_write_logic>
 116:	c2 fb       	bst	r28, 2
 118:	66 27       	eor	r22, r22
 11a:	60 f9       	bld	r22, 0
 11c:	c8 01       	movw	r24, r16
 11e:	40 96       	adiw	r24, 0x10	; 16
 120:	0e 94 db 01 	call	0x3b6	; 0x3b6 <gpio_write_logic>
 124:	c3 fb       	bst	r28, 3
 126:	66 27       	eor	r22, r22
 128:	60 f9       	bld	r22, 0
 12a:	c8 01       	movw	r24, r16
 12c:	44 96       	adiw	r24, 0x14	; 20
 12e:	0e 94 db 01 	call	0x3b6	; 0x3b6 <gpio_write_logic>
 132:	01 c0       	rjmp	.+2      	; 0x136 <LCD_4Bit_Send+0x44>
 134:	80 e0       	ldi	r24, 0x00	; 0
 136:	cf 91       	pop	r28
 138:	1f 91       	pop	r17
 13a:	0f 91       	pop	r16
 13c:	08 95       	ret

0000013e <LCD_4Bit_Send_enable>:
 13e:	cf 93       	push	r28
 140:	df 93       	push	r29
 142:	00 97       	sbiw	r24, 0x00	; 0
 144:	79 f0       	breq	.+30     	; 0x164 <LCD_4Bit_Send_enable+0x26>
 146:	ec 01       	movw	r28, r24
 148:	24 96       	adiw	r28, 0x04	; 4
 14a:	61 e0       	ldi	r22, 0x01	; 1
 14c:	ce 01       	movw	r24, r28
 14e:	0e 94 db 01 	call	0x3b6	; 0x3b6 <gpio_write_logic>
 152:	8a e1       	ldi	r24, 0x1A	; 26
 154:	8a 95       	dec	r24
 156:	f1 f7       	brne	.-4      	; 0x154 <LCD_4Bit_Send_enable+0x16>
 158:	00 c0       	rjmp	.+0      	; 0x15a <LCD_4Bit_Send_enable+0x1c>
 15a:	60 e0       	ldi	r22, 0x00	; 0
 15c:	ce 01       	movw	r24, r28
 15e:	0e 94 db 01 	call	0x3b6	; 0x3b6 <gpio_write_logic>
 162:	01 c0       	rjmp	.+2      	; 0x166 <LCD_4Bit_Send_enable+0x28>
 164:	80 e0       	ldi	r24, 0x00	; 0
 166:	df 91       	pop	r29
 168:	cf 91       	pop	r28
 16a:	08 95       	ret

0000016c <LCD_4Bit_Send_Command>:
 16c:	1f 93       	push	r17
 16e:	cf 93       	push	r28
 170:	df 93       	push	r29
 172:	00 97       	sbiw	r24, 0x00	; 0
 174:	b1 f0       	breq	.+44     	; 0x1a2 <LCD_4Bit_Send_Command+0x36>
 176:	16 2f       	mov	r17, r22
 178:	ec 01       	movw	r28, r24
 17a:	60 e0       	ldi	r22, 0x00	; 0
 17c:	0e 94 db 01 	call	0x3b6	; 0x3b6 <gpio_write_logic>
 180:	61 2f       	mov	r22, r17
 182:	62 95       	swap	r22
 184:	6f 70       	andi	r22, 0x0F	; 15
 186:	ce 01       	movw	r24, r28
 188:	0e 94 79 00 	call	0xf2	; 0xf2 <LCD_4Bit_Send>
 18c:	ce 01       	movw	r24, r28
 18e:	0e 94 9f 00 	call	0x13e	; 0x13e <LCD_4Bit_Send_enable>
 192:	61 2f       	mov	r22, r17
 194:	ce 01       	movw	r24, r28
 196:	0e 94 79 00 	call	0xf2	; 0xf2 <LCD_4Bit_Send>
 19a:	ce 01       	movw	r24, r28
 19c:	0e 94 9f 00 	call	0x13e	; 0x13e <LCD_4Bit_Send_enable>
 1a0:	01 c0       	rjmp	.+2      	; 0x1a4 <LCD_4Bit_Send_Command+0x38>
 1a2:	80 e0       	ldi	r24, 0x00	; 0
 1a4:	df 91       	pop	r29
 1a6:	cf 91       	pop	r28
 1a8:	1f 91       	pop	r17
 1aa:	08 95       	ret

000001ac <LCD_4Bit_Init>:
 1ac:	cf 93       	push	r28
 1ae:	df 93       	push	r29
 1b0:	00 97       	sbiw	r24, 0x00	; 0
 1b2:	09 f4       	brne	.+2      	; 0x1b6 <LCD_4Bit_Init+0xa>
 1b4:	51 c0       	rjmp	.+162    	; 0x258 <LCD_4Bit_Init+0xac>
 1b6:	ec 01       	movw	r28, r24
 1b8:	04 96       	adiw	r24, 0x04	; 4
 1ba:	0e 94 1a 02 	call	0x434	; 0x434 <gpio_pin_init>
 1be:	ce 01       	movw	r24, r28
 1c0:	0e 94 1a 02 	call	0x434	; 0x434 <gpio_pin_init>
 1c4:	ce 01       	movw	r24, r28
 1c6:	08 96       	adiw	r24, 0x08	; 8
 1c8:	0e 94 1a 02 	call	0x434	; 0x434 <gpio_pin_init>
 1cc:	ce 01       	movw	r24, r28
 1ce:	0c 96       	adiw	r24, 0x0c	; 12
 1d0:	0e 94 1a 02 	call	0x434	; 0x434 <gpio_pin_init>
 1d4:	ce 01       	movw	r24, r28
 1d6:	40 96       	adiw	r24, 0x10	; 16
 1d8:	0e 94 1a 02 	call	0x434	; 0x434 <gpio_pin_init>
 1dc:	ce 01       	movw	r24, r28
 1de:	44 96       	adiw	r24, 0x14	; 20
 1e0:	0e 94 1a 02 	call	0x434	; 0x434 <gpio_pin_init>
 1e4:	2f ef       	ldi	r18, 0xFF	; 255
 1e6:	89 ef       	ldi	r24, 0xF9	; 249
 1e8:	90 e0       	ldi	r25, 0x00	; 0
 1ea:	21 50       	subi	r18, 0x01	; 1
 1ec:	80 40       	sbci	r24, 0x00	; 0
 1ee:	90 40       	sbci	r25, 0x00	; 0
 1f0:	e1 f7       	brne	.-8      	; 0x1ea <LCD_4Bit_Init+0x3e>
 1f2:	00 c0       	rjmp	.+0      	; 0x1f4 <LCD_4Bit_Init+0x48>
 1f4:	00 00       	nop
 1f6:	68 e3       	ldi	r22, 0x38	; 56
 1f8:	ce 01       	movw	r24, r28
 1fa:	0e 94 b6 00 	call	0x16c	; 0x16c <LCD_4Bit_Send_Command>
 1fe:	8f e1       	ldi	r24, 0x1F	; 31
 200:	9e e4       	ldi	r25, 0x4E	; 78
 202:	01 97       	sbiw	r24, 0x01	; 1
 204:	f1 f7       	brne	.-4      	; 0x202 <LCD_4Bit_Init+0x56>
 206:	00 c0       	rjmp	.+0      	; 0x208 <LCD_4Bit_Init+0x5c>
 208:	00 00       	nop
 20a:	68 e3       	ldi	r22, 0x38	; 56
 20c:	ce 01       	movw	r24, r28
 20e:	0e 94 b6 00 	call	0x16c	; 0x16c <LCD_4Bit_Send_Command>
 212:	87 e5       	ldi	r24, 0x57	; 87
 214:	92 e0       	ldi	r25, 0x02	; 2
 216:	01 97       	sbiw	r24, 0x01	; 1
 218:	f1 f7       	brne	.-4      	; 0x216 <LCD_4Bit_Init+0x6a>
 21a:	00 c0       	rjmp	.+0      	; 0x21c <LCD_4Bit_Init+0x70>
 21c:	00 00       	nop
 21e:	68 e3       	ldi	r22, 0x38	; 56
 220:	ce 01       	movw	r24, r28
 222:	0e 94 b6 00 	call	0x16c	; 0x16c <LCD_4Bit_Send_Command>
 226:	61 e0       	ldi	r22, 0x01	; 1
 228:	ce 01       	movw	r24, r28
 22a:	0e 94 b6 00 	call	0x16c	; 0x16c <LCD_4Bit_Send_Command>
 22e:	62 e0       	ldi	r22, 0x02	; 2
 230:	ce 01       	movw	r24, r28
 232:	0e 94 b6 00 	call	0x16c	; 0x16c <LCD_4Bit_Send_Command>
 236:	66 e0       	ldi	r22, 0x06	; 6
 238:	ce 01       	movw	r24, r28
 23a:	0e 94 b6 00 	call	0x16c	; 0x16c <LCD_4Bit_Send_Command>
 23e:	6c e0       	ldi	r22, 0x0C	; 12
 240:	ce 01       	movw	r24, r28
 242:	0e 94 b6 00 	call	0x16c	; 0x16c <LCD_4Bit_Send_Command>
 246:	68 e2       	ldi	r22, 0x28	; 40
 248:	ce 01       	movw	r24, r28
 24a:	0e 94 b6 00 	call	0x16c	; 0x16c <LCD_4Bit_Send_Command>
 24e:	60 e8       	ldi	r22, 0x80	; 128
 250:	ce 01       	movw	r24, r28
 252:	0e 94 b6 00 	call	0x16c	; 0x16c <LCD_4Bit_Send_Command>
 256:	01 c0       	rjmp	.+2      	; 0x25a <LCD_4Bit_Init+0xae>
 258:	80 e0       	ldi	r24, 0x00	; 0
 25a:	df 91       	pop	r29
 25c:	cf 91       	pop	r28
 25e:	08 95       	ret

00000260 <LCD_4Bit_Send_Data_char>:
 260:	1f 93       	push	r17
 262:	cf 93       	push	r28
 264:	df 93       	push	r29
 266:	00 97       	sbiw	r24, 0x00	; 0
 268:	b1 f0       	breq	.+44     	; 0x296 <LCD_4Bit_Send_Data_char+0x36>
 26a:	16 2f       	mov	r17, r22
 26c:	ec 01       	movw	r28, r24
 26e:	61 e0       	ldi	r22, 0x01	; 1
 270:	0e 94 db 01 	call	0x3b6	; 0x3b6 <gpio_write_logic>
 274:	61 2f       	mov	r22, r17
 276:	62 95       	swap	r22
 278:	6f 70       	andi	r22, 0x0F	; 15
 27a:	ce 01       	movw	r24, r28
 27c:	0e 94 79 00 	call	0xf2	; 0xf2 <LCD_4Bit_Send>
 280:	ce 01       	movw	r24, r28
 282:	0e 94 9f 00 	call	0x13e	; 0x13e <LCD_4Bit_Send_enable>
 286:	61 2f       	mov	r22, r17
 288:	ce 01       	movw	r24, r28
 28a:	0e 94 79 00 	call	0xf2	; 0xf2 <LCD_4Bit_Send>
 28e:	ce 01       	movw	r24, r28
 290:	0e 94 9f 00 	call	0x13e	; 0x13e <LCD_4Bit_Send_enable>
 294:	01 c0       	rjmp	.+2      	; 0x298 <LCD_4Bit_Send_Data_char+0x38>
 296:	80 e0       	ldi	r24, 0x00	; 0
 298:	df 91       	pop	r29
 29a:	cf 91       	pop	r28
 29c:	1f 91       	pop	r17
 29e:	08 95       	ret

000002a0 <LCD_4Bit_Send_Data_String>:


Std_ReturnType LCD_4Bit_Send_Data_String(const char_4bit_lcd_t *_lcd,uint8 *_char)
{
 2a0:	0f 93       	push	r16
 2a2:	1f 93       	push	r17
 2a4:	cf 93       	push	r28
 2a6:	df 93       	push	r29
 2a8:	eb 01       	movw	r28, r22
	Std_ReturnType ret =E_OK;
	if(_lcd == NULL)
 2aa:	00 97       	sbiw	r24, 0x00	; 0
 2ac:	61 f0       	breq	.+24     	; 0x2c6 <LCD_4Bit_Send_Data_String+0x26>
	{
		ret = E_NOT_OK;
	}
	else
	{
		while(*_char)
 2ae:	68 81       	ld	r22, Y
 2b0:	66 23       	and	r22, r22
 2b2:	59 f0       	breq	.+22     	; 0x2ca <LCD_4Bit_Send_Data_String+0x2a>
 2b4:	8c 01       	movw	r16, r24
 2b6:	21 96       	adiw	r28, 0x01	; 1
		{
			ret =  LCD_4Bit_Send_Data_char(_lcd,*_char++);
 2b8:	c8 01       	movw	r24, r16
 2ba:	0e 94 30 01 	call	0x260	; 0x260 <LCD_4Bit_Send_Data_char>
	{
		ret = E_NOT_OK;
	}
	else
	{
		while(*_char)
 2be:	69 91       	ld	r22, Y+
 2c0:	61 11       	cpse	r22, r1
 2c2:	fa cf       	rjmp	.-12     	; 0x2b8 <LCD_4Bit_Send_Data_String+0x18>
 2c4:	03 c0       	rjmp	.+6      	; 0x2cc <LCD_4Bit_Send_Data_String+0x2c>
Std_ReturnType LCD_4Bit_Send_Data_String(const char_4bit_lcd_t *_lcd,uint8 *_char)
{
	Std_ReturnType ret =E_OK;
	if(_lcd == NULL)
	{
		ret = E_NOT_OK;
 2c6:	80 e0       	ldi	r24, 0x00	; 0
 2c8:	01 c0       	rjmp	.+2      	; 0x2cc <LCD_4Bit_Send_Data_String+0x2c>
	}
	else
	{
		while(*_char)
 2ca:	81 e0       	ldi	r24, 0x01	; 1
			ret =  LCD_4Bit_Send_Data_char(_lcd,*_char++);
		}
		
	}
	return ret;
}
 2cc:	df 91       	pop	r29
 2ce:	cf 91       	pop	r28
 2d0:	1f 91       	pop	r17
 2d2:	0f 91       	pop	r16
 2d4:	08 95       	ret

000002d6 <LCD_4Bit_send_Data_String_Pos>:


Std_ReturnType LCD_4Bit_send_Data_String_Pos(const char_4bit_lcd_t *_lcd,uint8 *_char,uint8 row,uint8 column)
{
 2d6:	0f 93       	push	r16
 2d8:	1f 93       	push	r17
 2da:	cf 93       	push	r28
 2dc:	df 93       	push	r29
	Std_ReturnType ret =E_OK;
	column--;
	if(_lcd == NULL)
 2de:	00 97       	sbiw	r24, 0x00	; 0
 2e0:	29 f1       	breq	.+74     	; 0x32c <LCD_4Bit_send_Data_String_Pos+0x56>
 2e2:	8b 01       	movw	r16, r22
 2e4:	ec 01       	movw	r28, r24
	{
		ret = E_NOT_OK;
	}
	else{
		switch(row)
 2e6:	42 30       	cpi	r20, 0x02	; 2
 2e8:	71 f0       	breq	.+28     	; 0x306 <LCD_4Bit_send_Data_String_Pos+0x30>
 2ea:	18 f4       	brcc	.+6      	; 0x2f2 <LCD_4Bit_send_Data_String_Pos+0x1c>
 2ec:	41 30       	cpi	r20, 0x01	; 1
 2ee:	31 f0       	breq	.+12     	; 0x2fc <LCD_4Bit_send_Data_String_Pos+0x26>
 2f0:	18 c0       	rjmp	.+48     	; 0x322 <LCD_4Bit_send_Data_String_Pos+0x4c>
 2f2:	43 30       	cpi	r20, 0x03	; 3
 2f4:	69 f0       	breq	.+26     	; 0x310 <LCD_4Bit_send_Data_String_Pos+0x3a>
 2f6:	44 30       	cpi	r20, 0x04	; 4
 2f8:	81 f0       	breq	.+32     	; 0x31a <LCD_4Bit_send_Data_String_Pos+0x44>
 2fa:	13 c0       	rjmp	.+38     	; 0x322 <LCD_4Bit_send_Data_String_Pos+0x4c>
		{
			case ROW1:ret = LCD_4Bit_Send_Command(_lcd,(0x80 + column)); break;
 2fc:	6f e7       	ldi	r22, 0x7F	; 127
 2fe:	62 0f       	add	r22, r18
 300:	0e 94 b6 00 	call	0x16c	; 0x16c <LCD_4Bit_Send_Command>
 304:	0e c0       	rjmp	.+28     	; 0x322 <LCD_4Bit_send_Data_String_Pos+0x4c>
			case ROW2:ret = LCD_4Bit_Send_Command(_lcd,(0xc0 + column)); break;
 306:	6f eb       	ldi	r22, 0xBF	; 191
 308:	62 0f       	add	r22, r18
 30a:	0e 94 b6 00 	call	0x16c	; 0x16c <LCD_4Bit_Send_Command>
 30e:	09 c0       	rjmp	.+18     	; 0x322 <LCD_4Bit_send_Data_String_Pos+0x4c>
			case ROW3:ret = LCD_4Bit_Send_Command(_lcd,(0x94 + column)); break;
 310:	63 e9       	ldi	r22, 0x93	; 147
 312:	62 0f       	add	r22, r18
 314:	0e 94 b6 00 	call	0x16c	; 0x16c <LCD_4Bit_Send_Command>
 318:	04 c0       	rjmp	.+8      	; 0x322 <LCD_4Bit_send_Data_String_Pos+0x4c>
			case ROW4:ret = LCD_4Bit_Send_Command(_lcd,(0xd4 + column)); break;
 31a:	63 ed       	ldi	r22, 0xD3	; 211
 31c:	62 0f       	add	r22, r18
 31e:	0e 94 b6 00 	call	0x16c	; 0x16c <LCD_4Bit_Send_Command>
			
		}
		ret = LCD_4Bit_Send_Data_String(_lcd,_char);
 322:	b8 01       	movw	r22, r16
 324:	ce 01       	movw	r24, r28
 326:	0e 94 50 01 	call	0x2a0	; 0x2a0 <LCD_4Bit_Send_Data_String>
 32a:	01 c0       	rjmp	.+2      	; 0x32e <LCD_4Bit_send_Data_String_Pos+0x58>
{
	Std_ReturnType ret =E_OK;
	column--;
	if(_lcd == NULL)
	{
		ret = E_NOT_OK;
 32c:	80 e0       	ldi	r24, 0x00	; 0
		}
		ret = LCD_4Bit_Send_Data_String(_lcd,_char);
		
	}
	return ret;
}
 32e:	df 91       	pop	r29
 330:	cf 91       	pop	r28
 332:	1f 91       	pop	r17
 334:	0f 91       	pop	r16
 336:	08 95       	ret

00000338 <main>:

#include "APPLICATION/APP.h"

int main(void)
{
   appStart();
 338:	0e 94 49 00 	call	0x92	; 0x92 <appStart>
}
 33c:	80 e0       	ldi	r24, 0x00	; 0
 33e:	90 e0       	ldi	r25, 0x00	; 0
 340:	08 95       	ret

00000342 <gpio_pin_dirction_init>:
	else
	{
		TOGGLE_BIT(*port_regster[pinObject->port], pinObject->pin);		
	}
	return ret;
}
 342:	fc 01       	movw	r30, r24
 344:	89 2b       	or	r24, r25
 346:	99 f1       	breq	.+102    	; 0x3ae <gpio_pin_dirction_init+0x6c>
 348:	82 81       	ldd	r24, Z+2	; 0x02
 34a:	88 23       	and	r24, r24
 34c:	19 f0       	breq	.+6      	; 0x354 <gpio_pin_dirction_init+0x12>
 34e:	81 30       	cpi	r24, 0x01	; 1
 350:	b9 f0       	breq	.+46     	; 0x380 <gpio_pin_dirction_init+0x3e>
 352:	2f c0       	rjmp	.+94     	; 0x3b2 <gpio_pin_dirction_init+0x70>
 354:	a0 81       	ld	r26, Z
 356:	b0 e0       	ldi	r27, 0x00	; 0
 358:	aa 0f       	add	r26, r26
 35a:	bb 1f       	adc	r27, r27
 35c:	ab 57       	subi	r26, 0x7B	; 123
 35e:	bf 4f       	sbci	r27, 0xFF	; 255
 360:	0d 90       	ld	r0, X+
 362:	bc 91       	ld	r27, X
 364:	a0 2d       	mov	r26, r0
 366:	2c 91       	ld	r18, X
 368:	81 e0       	ldi	r24, 0x01	; 1
 36a:	90 e0       	ldi	r25, 0x00	; 0
 36c:	01 80       	ldd	r0, Z+1	; 0x01
 36e:	02 c0       	rjmp	.+4      	; 0x374 <gpio_pin_dirction_init+0x32>
 370:	88 0f       	add	r24, r24
 372:	99 1f       	adc	r25, r25
 374:	0a 94       	dec	r0
 376:	e2 f7       	brpl	.-8      	; 0x370 <gpio_pin_dirction_init+0x2e>
 378:	82 2b       	or	r24, r18
 37a:	8c 93       	st	X, r24
 37c:	81 e0       	ldi	r24, 0x01	; 1
 37e:	08 95       	ret
 380:	a0 81       	ld	r26, Z
 382:	b0 e0       	ldi	r27, 0x00	; 0
 384:	aa 0f       	add	r26, r26
 386:	bb 1f       	adc	r27, r27
 388:	ab 57       	subi	r26, 0x7B	; 123
 38a:	bf 4f       	sbci	r27, 0xFF	; 255
 38c:	0d 90       	ld	r0, X+
 38e:	bc 91       	ld	r27, X
 390:	a0 2d       	mov	r26, r0
 392:	2c 91       	ld	r18, X
 394:	81 e0       	ldi	r24, 0x01	; 1
 396:	90 e0       	ldi	r25, 0x00	; 0
 398:	01 80       	ldd	r0, Z+1	; 0x01
 39a:	02 c0       	rjmp	.+4      	; 0x3a0 <gpio_pin_dirction_init+0x5e>
 39c:	88 0f       	add	r24, r24
 39e:	99 1f       	adc	r25, r25
 3a0:	0a 94       	dec	r0
 3a2:	e2 f7       	brpl	.-8      	; 0x39c <gpio_pin_dirction_init+0x5a>
 3a4:	80 95       	com	r24
 3a6:	82 23       	and	r24, r18
 3a8:	8c 93       	st	X, r24
 3aa:	81 e0       	ldi	r24, 0x01	; 1
 3ac:	08 95       	ret
 3ae:	80 e0       	ldi	r24, 0x00	; 0
 3b0:	08 95       	ret
 3b2:	80 e0       	ldi	r24, 0x00	; 0
 3b4:	08 95       	ret

000003b6 <gpio_write_logic>:
 3b6:	00 97       	sbiw	r24, 0x00	; 0
 3b8:	c9 f1       	breq	.+114    	; 0x42c <__EEPROM_REGION_LENGTH__+0x2c>
 3ba:	66 23       	and	r22, r22
 3bc:	e1 f0       	breq	.+56     	; 0x3f6 <gpio_write_logic+0x40>
 3be:	61 30       	cpi	r22, 0x01	; 1
 3c0:	b9 f5       	brne	.+110    	; 0x430 <__EEPROM_REGION_LENGTH__+0x30>
 3c2:	dc 01       	movw	r26, r24
 3c4:	ec 91       	ld	r30, X
 3c6:	f0 e0       	ldi	r31, 0x00	; 0
 3c8:	ee 0f       	add	r30, r30
 3ca:	ff 1f       	adc	r31, r31
 3cc:	e3 58       	subi	r30, 0x83	; 131
 3ce:	ff 4f       	sbci	r31, 0xFF	; 255
 3d0:	01 90       	ld	r0, Z+
 3d2:	f0 81       	ld	r31, Z
 3d4:	e0 2d       	mov	r30, r0
 3d6:	40 81       	ld	r20, Z
 3d8:	21 e0       	ldi	r18, 0x01	; 1
 3da:	30 e0       	ldi	r19, 0x00	; 0
 3dc:	b9 01       	movw	r22, r18
 3de:	11 96       	adiw	r26, 0x01	; 1
 3e0:	0c 90       	ld	r0, X
 3e2:	02 c0       	rjmp	.+4      	; 0x3e8 <gpio_write_logic+0x32>
 3e4:	66 0f       	add	r22, r22
 3e6:	77 1f       	adc	r23, r23
 3e8:	0a 94       	dec	r0
 3ea:	e2 f7       	brpl	.-8      	; 0x3e4 <gpio_write_logic+0x2e>
 3ec:	cb 01       	movw	r24, r22
 3ee:	84 2b       	or	r24, r20
 3f0:	80 83       	st	Z, r24
 3f2:	81 e0       	ldi	r24, 0x01	; 1
 3f4:	08 95       	ret
 3f6:	dc 01       	movw	r26, r24
 3f8:	ec 91       	ld	r30, X
 3fa:	f0 e0       	ldi	r31, 0x00	; 0
 3fc:	ee 0f       	add	r30, r30
 3fe:	ff 1f       	adc	r31, r31
 400:	e3 58       	subi	r30, 0x83	; 131
 402:	ff 4f       	sbci	r31, 0xFF	; 255
 404:	01 90       	ld	r0, Z+
 406:	f0 81       	ld	r31, Z
 408:	e0 2d       	mov	r30, r0
 40a:	40 81       	ld	r20, Z
 40c:	21 e0       	ldi	r18, 0x01	; 1
 40e:	30 e0       	ldi	r19, 0x00	; 0
 410:	b9 01       	movw	r22, r18
 412:	11 96       	adiw	r26, 0x01	; 1
 414:	0c 90       	ld	r0, X
 416:	02 c0       	rjmp	.+4      	; 0x41c <__EEPROM_REGION_LENGTH__+0x1c>
 418:	66 0f       	add	r22, r22
 41a:	77 1f       	adc	r23, r23
 41c:	0a 94       	dec	r0
 41e:	e2 f7       	brpl	.-8      	; 0x418 <__EEPROM_REGION_LENGTH__+0x18>
 420:	cb 01       	movw	r24, r22
 422:	80 95       	com	r24
 424:	84 23       	and	r24, r20
 426:	80 83       	st	Z, r24
 428:	81 e0       	ldi	r24, 0x01	; 1
 42a:	08 95       	ret
 42c:	80 e0       	ldi	r24, 0x00	; 0
 42e:	08 95       	ret
 430:	80 e0       	ldi	r24, 0x00	; 0
 432:	08 95       	ret

00000434 <gpio_pin_init>:


Std_ReturnType gpio_pin_init(const ST_pinCofig_t* pinObject)
{
 434:	cf 93       	push	r28
 436:	df 93       	push	r29
	Std_ReturnType ret = E_OK;
	if(pinObject == NULL)
 438:	00 97       	sbiw	r24, 0x00	; 0
 43a:	41 f0       	breq	.+16     	; 0x44c <gpio_pin_init+0x18>
 43c:	ec 01       	movw	r28, r24
	{
		ret = E_NOT_OK;
	}
	else
	{
		ret = gpio_pin_dirction_init(pinObject);
 43e:	0e 94 a1 01 	call	0x342	; 0x342 <gpio_pin_dirction_init>
		ret = gpio_write_logic(pinObject, pinObject->pin_logic);	
 442:	6b 81       	ldd	r22, Y+3	; 0x03
 444:	ce 01       	movw	r24, r28
 446:	0e 94 db 01 	call	0x3b6	; 0x3b6 <gpio_write_logic>
 44a:	01 c0       	rjmp	.+2      	; 0x44e <gpio_pin_init+0x1a>
Std_ReturnType gpio_pin_init(const ST_pinCofig_t* pinObject)
{
	Std_ReturnType ret = E_OK;
	if(pinObject == NULL)
	{
		ret = E_NOT_OK;
 44c:	80 e0       	ldi	r24, 0x00	; 0
	{
		ret = gpio_pin_dirction_init(pinObject);
		ret = gpio_write_logic(pinObject, pinObject->pin_logic);	
	}
	return ret;
}
 44e:	df 91       	pop	r29
 450:	cf 91       	pop	r28
 452:	08 95       	ret

00000454 <__vector_1>:
	}
}


ISR(INT0_vect)
{
 454:	1f 92       	push	r1
 456:	0f 92       	push	r0
 458:	0f b6       	in	r0, 0x3f	; 63
 45a:	0f 92       	push	r0
 45c:	11 24       	eor	r1, r1
 45e:	2f 93       	push	r18
 460:	3f 93       	push	r19
 462:	4f 93       	push	r20
 464:	5f 93       	push	r21
 466:	6f 93       	push	r22
 468:	7f 93       	push	r23
 46a:	8f 93       	push	r24
 46c:	9f 93       	push	r25
 46e:	af 93       	push	r26
 470:	bf 93       	push	r27
 472:	ef 93       	push	r30
 474:	ff 93       	push	r31
	if(INT0_fptr != NULL)
 476:	e0 91 9a 00 	lds	r30, 0x009A	; 0x80009a <INT0_fptr>
 47a:	f0 91 9b 00 	lds	r31, 0x009B	; 0x80009b <INT0_fptr+0x1>
 47e:	30 97       	sbiw	r30, 0x00	; 0
 480:	09 f0       	breq	.+2      	; 0x484 <__vector_1+0x30>
	{
		INT0_fptr();
 482:	09 95       	icall
	}
}
 484:	ff 91       	pop	r31
 486:	ef 91       	pop	r30
 488:	bf 91       	pop	r27
 48a:	af 91       	pop	r26
 48c:	9f 91       	pop	r25
 48e:	8f 91       	pop	r24
 490:	7f 91       	pop	r23
 492:	6f 91       	pop	r22
 494:	5f 91       	pop	r21
 496:	4f 91       	pop	r20
 498:	3f 91       	pop	r19
 49a:	2f 91       	pop	r18
 49c:	0f 90       	pop	r0
 49e:	0f be       	out	0x3f, r0	; 63
 4a0:	0f 90       	pop	r0
 4a2:	1f 90       	pop	r1
 4a4:	18 95       	reti

000004a6 <__vector_2>:


ISR(INT1_vect)
{
 4a6:	1f 92       	push	r1
 4a8:	0f 92       	push	r0
 4aa:	0f b6       	in	r0, 0x3f	; 63
 4ac:	0f 92       	push	r0
 4ae:	11 24       	eor	r1, r1
 4b0:	2f 93       	push	r18
 4b2:	3f 93       	push	r19
 4b4:	4f 93       	push	r20
 4b6:	5f 93       	push	r21
 4b8:	6f 93       	push	r22
 4ba:	7f 93       	push	r23
 4bc:	8f 93       	push	r24
 4be:	9f 93       	push	r25
 4c0:	af 93       	push	r26
 4c2:	bf 93       	push	r27
 4c4:	ef 93       	push	r30
 4c6:	ff 93       	push	r31
	if(INT1_fptr != NULL)
 4c8:	e0 91 98 00 	lds	r30, 0x0098	; 0x800098 <INT1_fptr>
 4cc:	f0 91 99 00 	lds	r31, 0x0099	; 0x800099 <INT1_fptr+0x1>
 4d0:	30 97       	sbiw	r30, 0x00	; 0
 4d2:	09 f0       	breq	.+2      	; 0x4d6 <__vector_2+0x30>
	{
		INT1_fptr();
 4d4:	09 95       	icall
	}
}
 4d6:	ff 91       	pop	r31
 4d8:	ef 91       	pop	r30
 4da:	bf 91       	pop	r27
 4dc:	af 91       	pop	r26
 4de:	9f 91       	pop	r25
 4e0:	8f 91       	pop	r24
 4e2:	7f 91       	pop	r23
 4e4:	6f 91       	pop	r22
 4e6:	5f 91       	pop	r21
 4e8:	4f 91       	pop	r20
 4ea:	3f 91       	pop	r19
 4ec:	2f 91       	pop	r18
 4ee:	0f 90       	pop	r0
 4f0:	0f be       	out	0x3f, r0	; 63
 4f2:	0f 90       	pop	r0
 4f4:	1f 90       	pop	r1
 4f6:	18 95       	reti

000004f8 <__vector_3>:


ISR(INT2_vect)
{
 4f8:	1f 92       	push	r1
 4fa:	0f 92       	push	r0
 4fc:	0f b6       	in	r0, 0x3f	; 63
 4fe:	0f 92       	push	r0
 500:	11 24       	eor	r1, r1
 502:	2f 93       	push	r18
 504:	3f 93       	push	r19
 506:	4f 93       	push	r20
 508:	5f 93       	push	r21
 50a:	6f 93       	push	r22
 50c:	7f 93       	push	r23
 50e:	8f 93       	push	r24
 510:	9f 93       	push	r25
 512:	af 93       	push	r26
 514:	bf 93       	push	r27
 516:	ef 93       	push	r30
 518:	ff 93       	push	r31
	if(INT2_fptr != NULL)
 51a:	e0 91 96 00 	lds	r30, 0x0096	; 0x800096 <__data_end>
 51e:	f0 91 97 00 	lds	r31, 0x0097	; 0x800097 <__data_end+0x1>
 522:	30 97       	sbiw	r30, 0x00	; 0
 524:	09 f0       	breq	.+2      	; 0x528 <__vector_3+0x30>
	{
		INT2_fptr();
 526:	09 95       	icall
	}
 528:	ff 91       	pop	r31
 52a:	ef 91       	pop	r30
 52c:	bf 91       	pop	r27
 52e:	af 91       	pop	r26
 530:	9f 91       	pop	r25
 532:	8f 91       	pop	r24
 534:	7f 91       	pop	r23
 536:	6f 91       	pop	r22
 538:	5f 91       	pop	r21
 53a:	4f 91       	pop	r20
 53c:	3f 91       	pop	r19
 53e:	2f 91       	pop	r18
 540:	0f 90       	pop	r0
 542:	0f be       	out	0x3f, r0	; 63
 544:	0f 90       	pop	r0
 546:	1f 90       	pop	r1
 548:	18 95       	reti

0000054a <__vector_11>:
	return ret;
}


ISR(TIMER0_OVF_vect)
{
 54a:	1f 92       	push	r1
 54c:	0f 92       	push	r0
 54e:	0f b6       	in	r0, 0x3f	; 63
 550:	0f 92       	push	r0
 552:	11 24       	eor	r1, r1
 554:	2f 93       	push	r18
 556:	3f 93       	push	r19
 558:	4f 93       	push	r20
 55a:	5f 93       	push	r21
 55c:	6f 93       	push	r22
 55e:	7f 93       	push	r23
 560:	8f 93       	push	r24
 562:	9f 93       	push	r25
 564:	af 93       	push	r26
 566:	bf 93       	push	r27
 568:	ef 93       	push	r30
 56a:	ff 93       	push	r31
	if(tmr0_overFlow_interruptHandler != NULL)
 56c:	e0 91 9e 00 	lds	r30, 0x009E	; 0x80009e <tmr0_overFlow_interruptHandler>
 570:	f0 91 9f 00 	lds	r31, 0x009F	; 0x80009f <tmr0_overFlow_interruptHandler+0x1>
 574:	30 97       	sbiw	r30, 0x00	; 0
 576:	09 f0       	breq	.+2      	; 0x57a <__vector_11+0x30>
	{
		tmr0_overFlow_interruptHandler();
 578:	09 95       	icall
	}
}
 57a:	ff 91       	pop	r31
 57c:	ef 91       	pop	r30
 57e:	bf 91       	pop	r27
 580:	af 91       	pop	r26
 582:	9f 91       	pop	r25
 584:	8f 91       	pop	r24
 586:	7f 91       	pop	r23
 588:	6f 91       	pop	r22
 58a:	5f 91       	pop	r21
 58c:	4f 91       	pop	r20
 58e:	3f 91       	pop	r19
 590:	2f 91       	pop	r18
 592:	0f 90       	pop	r0
 594:	0f be       	out	0x3f, r0	; 63
 596:	0f 90       	pop	r0
 598:	1f 90       	pop	r1
 59a:	18 95       	reti

0000059c <__vector_10>:

ISR(TIMER0_COMP_vect)
{
 59c:	1f 92       	push	r1
 59e:	0f 92       	push	r0
 5a0:	0f b6       	in	r0, 0x3f	; 63
 5a2:	0f 92       	push	r0
 5a4:	11 24       	eor	r1, r1
 5a6:	2f 93       	push	r18
 5a8:	3f 93       	push	r19
 5aa:	4f 93       	push	r20
 5ac:	5f 93       	push	r21
 5ae:	6f 93       	push	r22
 5b0:	7f 93       	push	r23
 5b2:	8f 93       	push	r24
 5b4:	9f 93       	push	r25
 5b6:	af 93       	push	r26
 5b8:	bf 93       	push	r27
 5ba:	ef 93       	push	r30
 5bc:	ff 93       	push	r31
	if(tmr0_OC_interruptHandler != NULL)
 5be:	e0 91 9c 00 	lds	r30, 0x009C	; 0x80009c <tmr0_OC_interruptHandler>
 5c2:	f0 91 9d 00 	lds	r31, 0x009D	; 0x80009d <tmr0_OC_interruptHandler+0x1>
 5c6:	30 97       	sbiw	r30, 0x00	; 0
 5c8:	09 f0       	breq	.+2      	; 0x5cc <__vector_10+0x30>
	{
		tmr0_OC_interruptHandler();
 5ca:	09 95       	icall
	}
}
 5cc:	ff 91       	pop	r31
 5ce:	ef 91       	pop	r30
 5d0:	bf 91       	pop	r27
 5d2:	af 91       	pop	r26
 5d4:	9f 91       	pop	r25
 5d6:	8f 91       	pop	r24
 5d8:	7f 91       	pop	r23
 5da:	6f 91       	pop	r22
 5dc:	5f 91       	pop	r21
 5de:	4f 91       	pop	r20
 5e0:	3f 91       	pop	r19
 5e2:	2f 91       	pop	r18
 5e4:	0f 90       	pop	r0
 5e6:	0f be       	out	0x3f, r0	; 63
 5e8:	0f 90       	pop	r0
 5ea:	1f 90       	pop	r1
 5ec:	18 95       	reti

000005ee <__vector_13>:


/***********************************************ISR ************************************************************/

ISR(USART_RXC_vect)
{
 5ee:	1f 92       	push	r1
 5f0:	0f 92       	push	r0
 5f2:	0f b6       	in	r0, 0x3f	; 63
 5f4:	0f 92       	push	r0
 5f6:	11 24       	eor	r1, r1
 5f8:	2f 93       	push	r18
 5fa:	3f 93       	push	r19
 5fc:	4f 93       	push	r20
 5fe:	5f 93       	push	r21
 600:	6f 93       	push	r22
 602:	7f 93       	push	r23
 604:	8f 93       	push	r24
 606:	9f 93       	push	r25
 608:	af 93       	push	r26
 60a:	bf 93       	push	r27
 60c:	ef 93       	push	r30
 60e:	ff 93       	push	r31
	if (UART_RX_Fptr!=NULL)
 610:	e0 91 a2 00 	lds	r30, 0x00A2	; 0x8000a2 <UART_RX_Fptr>
 614:	f0 91 a3 00 	lds	r31, 0x00A3	; 0x8000a3 <UART_RX_Fptr+0x1>
 618:	30 97       	sbiw	r30, 0x00	; 0
 61a:	09 f0       	breq	.+2      	; 0x61e <__vector_13+0x30>
	{
		UART_RX_Fptr();
 61c:	09 95       	icall
	}
}
 61e:	ff 91       	pop	r31
 620:	ef 91       	pop	r30
 622:	bf 91       	pop	r27
 624:	af 91       	pop	r26
 626:	9f 91       	pop	r25
 628:	8f 91       	pop	r24
 62a:	7f 91       	pop	r23
 62c:	6f 91       	pop	r22
 62e:	5f 91       	pop	r21
 630:	4f 91       	pop	r20
 632:	3f 91       	pop	r19
 634:	2f 91       	pop	r18
 636:	0f 90       	pop	r0
 638:	0f be       	out	0x3f, r0	; 63
 63a:	0f 90       	pop	r0
 63c:	1f 90       	pop	r1
 63e:	18 95       	reti

00000640 <__vector_15>:


 ISR(USART_TXC_vect)
{
 640:	1f 92       	push	r1
 642:	0f 92       	push	r0
 644:	0f b6       	in	r0, 0x3f	; 63
 646:	0f 92       	push	r0
 648:	11 24       	eor	r1, r1
 64a:	2f 93       	push	r18
 64c:	3f 93       	push	r19
 64e:	4f 93       	push	r20
 650:	5f 93       	push	r21
 652:	6f 93       	push	r22
 654:	7f 93       	push	r23
 656:	8f 93       	push	r24
 658:	9f 93       	push	r25
 65a:	af 93       	push	r26
 65c:	bf 93       	push	r27
 65e:	ef 93       	push	r30
 660:	ff 93       	push	r31
	if (UART_TX_Fptr!=NULL)
 662:	e0 91 a0 00 	lds	r30, 0x00A0	; 0x8000a0 <UART_TX_Fptr>
 666:	f0 91 a1 00 	lds	r31, 0x00A1	; 0x8000a1 <UART_TX_Fptr+0x1>
 66a:	30 97       	sbiw	r30, 0x00	; 0
 66c:	09 f0       	breq	.+2      	; 0x670 <__vector_15+0x30>
	{
		UART_TX_Fptr();
 66e:	09 95       	icall
	}
}
 670:	ff 91       	pop	r31
 672:	ef 91       	pop	r30
 674:	bf 91       	pop	r27
 676:	af 91       	pop	r26
 678:	9f 91       	pop	r25
 67a:	8f 91       	pop	r24
 67c:	7f 91       	pop	r23
 67e:	6f 91       	pop	r22
 680:	5f 91       	pop	r21
 682:	4f 91       	pop	r20
 684:	3f 91       	pop	r19
 686:	2f 91       	pop	r18
 688:	0f 90       	pop	r0
 68a:	0f be       	out	0x3f, r0	; 63
 68c:	0f 90       	pop	r0
 68e:	1f 90       	pop	r1
 690:	18 95       	reti

00000692 <_exit>:
 692:	f8 94       	cli

00000694 <__stop_program>:
 694:	ff cf       	rjmp	.-2      	; 0x694 <__stop_program>
